target datalayout = "e-m:e-p270:32:32-p271:32:32-p272:64:64-i64:64-i128:128-f80:128-n8:16:32:64-S128"
target triple = "x86_64-pc-linux-gnu"

%struct._lv_imagebutton_t = type { %struct._lv_obj_t, [6 x %struct._lv_imagebutton_src_info_t], [6 x %struct._lv_imagebutton_src_info_t], [6 x %struct._lv_imagebutton_src_info_t] }
%struct._lv_obj_t = type { ptr, ptr, ptr, ptr, ptr, %struct.lv_area_t, i32, i16, i16 }
%struct.lv_area_t = type { i32, i32, i32, i32 }
%struct._lv_imagebutton_src_info_t = type { ptr, %struct.lv_image_header_t }
%struct.lv_image_header_t = type <{ i64, i32 }>

; Function Attrs: inlinehint nounwind uwtable
define internal void @lv_memzero(ptr noundef %0, i64 noundef %1) #3 {
  %3 = alloca ptr, align 8
  %4 = alloca i64, align 8
  store ptr %0, ptr %3, align 8, !tbaa !3
  store i64 %1, ptr %4, align 8, !tbaa !18
  %5 = load ptr, ptr %3, align 8, !tbaa !3
  %6 = load i64, ptr %4, align 8, !tbaa !18
  call void @lv_memset(ptr noundef %5, i8 noundef zeroext 0, i64 noundef %6)
  ret void
}

; Function Attrs: nounwind uwtable
define internal void @update_src_info(ptr noundef %0, ptr noundef %1) #0 {
  %3 = alloca ptr, align 8
  %4 = alloca ptr, align 8
  %5 = alloca i32, align 4
  %6 = alloca i32, align 4
  store ptr %0, ptr %3, align 8, !tbaa !3
  store ptr %1, ptr %4, align 8, !tbaa !3
  %7 = load ptr, ptr %4, align 8, !tbaa !3
  %8 = icmp ne ptr %7, null
  br i1 %8, label %11, label %9

9:                                                ; preds = %2
  %10 = load ptr, ptr %3, align 8, !tbaa !3
  call void @lv_memzero(ptr noundef %10, i64 noundef 24)
  br label %28

11:                                               ; preds = %2
  call void @llvm.lifetime.start.p0(i64 4, ptr %5) #5
  %12 = load ptr, ptr %4, align 8, !tbaa !3
  %13 = load ptr, ptr %3, align 8, !tbaa !3
  %14 = getelementptr inbounds nuw %struct._lv_imagebutton_src_info_t, ptr %13, i32 0, i32 1
  %15 = call i32 @lv_image_decoder_get_info(ptr noundef %12, ptr noundef %14)
  store i32 %15, ptr %5, align 4, !tbaa !7
  %16 = load i32, ptr %5, align 4, !tbaa !7
  %17 = icmp ne i32 %16, 1
  br i1 %17, label %18, label %22

18:                                               ; preds = %11
  br label %19

19:                                               ; preds = %18
  br label %20

20:                                               ; preds = %19
  br label %21

21:                                               ; preds = %20
  store i32 1, ptr %6, align 4
  br label %26

22:                                               ; preds = %11
  %23 = load ptr, ptr %4, align 8, !tbaa !3
  %24 = load ptr, ptr %3, align 8, !tbaa !3
  %25 = getelementptr inbounds nuw %struct._lv_imagebutton_src_info_t, ptr %24, i32 0, i32 0
  store ptr %23, ptr %25, align 8, !tbaa !11
  store i32 0, ptr %6, align 4
  br label %26

26:                                               ; preds = %22, %21
  call void @llvm.lifetime.end.p0(i64 4, ptr %5) #5
  %27 = load i32, ptr %6, align 4
  switch i32 %27, label %29 [
    i32 0, label %28
    i32 1, label %28
  ]

28:                                               ; preds = %9, %26, %26
  ret void

29:                                               ; preds = %26
  unreachable
}

; Function Attrs: nounwind uwtable
define void @lv_imagebutton_set_src(ptr noundef %0, i32 noundef %1, ptr noundef %2, ptr noundef %3, ptr noundef %4) #0 {
  %6 = alloca ptr, align 8
  %7 = alloca i32, align 4
  %8 = alloca ptr, align 8
  %9 = alloca ptr, align 8
  %10 = alloca ptr, align 8
  %11 = alloca ptr, align 8
  store ptr %0, ptr %6, align 8, !tbaa !3
  store i32 %1, ptr %7, align 4, !tbaa !7
  store ptr %2, ptr %8, align 8, !tbaa !3
  store ptr %3, ptr %9, align 8, !tbaa !3
  store ptr %4, ptr %10, align 8, !tbaa !3
  br label %12

12:                                               ; preds = %5
  br label %13

13:                                               ; preds = %12
  call void @llvm.lifetime.start.p0(i64 8, ptr %11) #5
  %14 = load ptr, ptr %6, align 8, !tbaa !3
  store ptr %14, ptr %11, align 8, !tbaa !3
  %15 = load ptr, ptr %11, align 8, !tbaa !3
  %16 = getelementptr inbounds nuw %struct._lv_imagebutton_t, ptr %15, i32 0, i32 2
  %17 = load i32, ptr %7, align 4, !tbaa !7
  %18 = zext i32 %17 to i64
  %19 = getelementptr inbounds nuw [6 x %struct._lv_imagebutton_src_info_t], ptr %16, i64 0, i64 %18
  %20 = load ptr, ptr %8, align 8, !tbaa !3
  call void @update_src_info(ptr noundef %19, ptr noundef %20)
  %21 = load ptr, ptr %11, align 8, !tbaa !3
  %22 = getelementptr inbounds nuw %struct._lv_imagebutton_t, ptr %21, i32 0, i32 1
  %23 = load i32, ptr %7, align 4, !tbaa !7
  %24 = zext i32 %23 to i64
  %25 = getelementptr inbounds nuw [6 x %struct._lv_imagebutton_src_info_t], ptr %22, i64 0, i64 %24
  %26 = load ptr, ptr %9, align 8, !tbaa !3
  call void @update_src_info(ptr noundef %25, ptr noundef %26)
  %27 = load ptr, ptr %11, align 8, !tbaa !3
  %28 = getelementptr inbounds nuw %struct._lv_imagebutton_t, ptr %27, i32 0, i32 3
  %29 = load i32, ptr %7, align 4, !tbaa !7
  %30 = zext i32 %29 to i64
  %31 = getelementptr inbounds nuw [6 x %struct._lv_imagebutton_src_info_t], ptr %28, i64 0, i64 %30
  %32 = load ptr, ptr %10, align 8, !tbaa !3
  call void @update_src_info(ptr noundef %31, ptr noundef %32)
  %33 = load ptr, ptr %6, align 8, !tbaa !3
  call void @refr_image(ptr noundef %33)
  call void @llvm.lifetime.end.p0(i64 8, ptr %11) #5
  ret void
}