; Function Attrs: nounwind uwtable
define void @lv_imagebutton_set_src(ptr noundef %0, i32 noundef %1, ptr noundef %2, ptr noundef %3, ptr noundef %4) local_unnamed_addr #0 {
  %6 = getelementptr inbounds nuw i8, ptr %0, i64 208
  %7 = zext i32 %1 to i64
  %8 = getelementptr inbounds nuw [6 x %struct._lv_imagebutton_src_info_t], ptr %6, i64 0, i64 %7
  %.not.i = icmp eq ptr %2, null
  br i1 %.not.i, label %9, label %10

9:                                                ; preds = %5
  tail call void @lv_memset(ptr noundef nonnull %8, i8 noundef zeroext 0, i64 noundef 24) #6
  br label %update_src_info.exit

10:                                               ; preds = %5
  %11 = getelementptr inbounds nuw i8, ptr %8, i64 8
  %12 = tail call i32 @lv_image_decoder_get_info(ptr noundef nonnull %2, ptr noundef nonnull %11) #6
  %.not6.i = icmp eq i32 %12, 1
  br i1 %.not6.i, label %13, label %update_src_info.exit

13:                                               ; preds = %10
  store ptr %2, ptr %8, align 8, !tbaa !3
  br label %update_src_info.exit

update_src_info.exit:                             ; preds = %9, %10, %13
  %14 = getelementptr inbounds nuw i8, ptr %0, i64 64
  %15 = getelementptr inbounds nuw [6 x %struct._lv_imagebutton_src_info_t], ptr %14, i64 0, i64 %7
  %.not.i10 = icmp eq ptr %3, null
  br i1 %.not.i10, label %16, label %17

16:                                               ; preds = %update_src_info.exit
  tail call void @lv_memset(ptr noundef nonnull %15, i8 noundef zeroext 0, i64 noundef 24) #6
  br label %update_src_info.exit12

17:                                               ; preds = %update_src_info.exit
  %18 = getelementptr inbounds nuw i8, ptr %15, i64 8
  %19 = tail call i32 @lv_image_decoder_get_info(ptr noundef nonnull %3, ptr noundef nonnull %18) #6
  %.not6.i11 = icmp eq i32 %19, 1
  br i1 %.not6.i11, label %20, label %update_src_info.exit12

20:                                               ; preds = %17
  store ptr %3, ptr %15, align 8, !tbaa !3
  br label %update_src_info.exit12

update_src_info.exit12:                           ; preds = %16, %17, %20
  %21 = getelementptr inbounds nuw i8, ptr %0, i64 352
  %22 = getelementptr inbounds nuw [6 x %struct._lv_imagebutton_src_info_t], ptr %21, i64 0, i64 %7
  %.not.i13 = icmp eq ptr %4, null
  br i1 %.not.i13, label %23, label %24

23:                                               ; preds = %update_src_info.exit12
  tail call void @lv_memset(ptr noundef nonnull %22, i8 noundef zeroext 0, i64 noundef 24) #6
  br label %update_src_info.exit15

24:                                               ; preds = %update_src_info.exit12
  %25 = getelementptr inbounds nuw i8, ptr %22, i64 8
  %26 = tail call i32 @lv_image_decoder_get_info(ptr noundef nonnull %4, ptr noundef nonnull %25) #6
  %.not6.i14 = icmp eq i32 %26, 1
  br i1 %.not6.i14, label %27, label %update_src_info.exit15

27:                                               ; preds = %24
  store ptr %4, ptr %22, align 8, !tbaa !3
  br label %update_src_info.exit15

update_src_info.exit15:                           ; preds = %23, %24, %27
  tail call fastcc void @refr_image(ptr noundef %0)
  ret void
}